; Function Attrs: mustprogress uwtable
define dso_local noundef nonnull align 8 dereferenceable(24) ptr @_ZN4i18n12phonenumbers11UnicodeText4CopyERKS1_(ptr noundef nonnull returned align 8 dereferenceable(24) %0, ptr noundef nonnull readonly align 8 captures(none) dereferenceable(24) %1) local_unnamed_addr #1 align 2 {
  %3 = load ptr, ptr %1, align 8, !tbaa !44
  %4 = getelementptr inbounds nuw i8, ptr %1, i64 8
  %5 = load i32, ptr %4, align 8, !tbaa !46
  %6 = icmp eq i32 %5, 0
  %7 = getelementptr inbounds nuw i8, ptr %0, i64 16
  %8 = load i8, ptr %7, align 8, !tbaa !17, !range !18, !noundef !19
  %9 = trunc nuw i8 %8 to i1
  br i1 %6, label %10, label %15

10:                                               ; preds = %2
  br i1 %9, label %11, label %_ZN4i18n12phonenumbers11UnicodeText4Repr5clearEv.exit.i.i

11:                                               ; preds = %10
  %12 = load ptr, ptr %0, align 8, !tbaa !20
  %13 = icmp eq ptr %12, null
  br i1 %13, label %_ZN4i18n12phonenumbers11UnicodeText4Repr5clearEv.exit.i.i, label %14

14:                                               ; preds = %11
  tail call void @_ZdaPv(ptr noundef nonnull %12) #26
  br label %_ZN4i18n12phonenumbers11UnicodeText4Repr5clearEv.exit.i.i

_ZN4i18n12phonenumbers11UnicodeText4Repr5clearEv.exit.i.i: ; preds = %14, %11, %10
  tail call void @llvm.memset.p0.i64(ptr noundef nonnull align 8 dereferenceable(18) %0, i8 0, i64 16, i1 false)
  br label %_ZN4i18n12phonenumbers11UnicodeText4Repr4CopyEPKci.exit

15:                                               ; preds = %2
  %16 = getelementptr inbounds nuw i8, ptr %0, i64 12
  %17 = load i32, ptr %16, align 4
  %18 = icmp sle i32 %5, %17
  %or.cond10.not.i.i = and i1 %18, %9
  br i1 %or.cond10.not.i.i, label %._ZN4i18n12phonenumbers11UnicodeText4Repr7reserveEi.exit.i_crit_edge.i, label %19

._ZN4i18n12phonenumbers11UnicodeText4Repr7reserveEi.exit.i_crit_edge.i: ; preds = %15
  %.pre.pre3.pre.i = load ptr, ptr %0, align 8, !tbaa !20
  br label %_ZN4i18n12phonenumbers11UnicodeText4Repr7reserveEi.exit.i.i

19:                                               ; preds = %15
  %20 = mul nsw i32 %17, 3
  %21 = sdiv i32 %20, 2
  %22 = add nsw i32 %21, 20
  %.sroa.speculated.i.i.i = tail call i32 @llvm.smax.i32(i32 %5, i32 %22)
  store i32 %.sroa.speculated.i.i.i, ptr %16, align 4, !tbaa !13
  %23 = sext i32 %.sroa.speculated.i.i.i to i64
  %24 = tail call noalias noundef nonnull ptr @_Znam(i64 noundef %23) #25
  %25 = load ptr, ptr %0, align 8, !tbaa !20
  %.not4.i.i.i = icmp eq ptr %25, null
  br i1 %.not4.i.i.i, label %31, label %26

26:                                               ; preds = %19
  %27 = getelementptr inbounds nuw i8, ptr %0, i64 8
  %28 = load i32, ptr %27, align 8, !tbaa !21
  %29 = sext i32 %28 to i64
  tail call void @llvm.memcpy.p0.p0.i64(ptr nonnull align 1 %24, ptr nonnull align 1 %25, i64 %29, i1 false)
  br i1 %9, label %30, label %31

30:                                               ; preds = %26
  tail call void @_ZdaPv(ptr noundef nonnull %25) #26
  br label %31

31:                                               ; preds = %30, %26, %19
  store ptr %24, ptr %0, align 8, !tbaa !20
  br label %_ZN4i18n12phonenumbers11UnicodeText4Repr7reserveEi.exit.i.i

_ZN4i18n12phonenumbers11UnicodeText4Repr7reserveEi.exit.i.i: ; preds = %31, %._ZN4i18n12phonenumbers11UnicodeText4Repr7reserveEi.exit.i_crit_edge.i
  %.pre.pre3.i = phi ptr [ %.pre.pre3.pre.i, %._ZN4i18n12phonenumbers11UnicodeText4Repr7reserveEi.exit.i_crit_edge.i ], [ %24, %31 ]
  %32 = getelementptr inbounds nuw i8, ptr %0, i64 8
  %33 = load i32, ptr %32, align 8, !tbaa !21
  %34 = icmp slt i32 %33, %5
  br i1 %34, label %35, label %40

35:                                               ; preds = %_ZN4i18n12phonenumbers11UnicodeText4Repr7reserveEi.exit.i.i
  %36 = sext i32 %33 to i64
  %37 = getelementptr inbounds i8, ptr %.pre.pre3.i, i64 %36
  %38 = sub nsw i32 %5, %33
  %39 = sext i32 %38 to i64
  tail call void @llvm.memset.p0.i64(ptr align 1 %37, i8 0, i64 %39, i1 false)
  %.pre.pre.i = load ptr, ptr %0, align 8, !tbaa !20
  br label %40

40:                                               ; preds = %35, %_ZN4i18n12phonenumbers11UnicodeText4Repr7reserveEi.exit.i.i
  %.pre.i = phi ptr [ %.pre.pre.i, %35 ], [ %.pre.pre3.i, %_ZN4i18n12phonenumbers11UnicodeText4Repr7reserveEi.exit.i.i ]
  store i32 %5, ptr %32, align 8, !tbaa !21
  br label %_ZN4i18n12phonenumbers11UnicodeText4Repr4CopyEPKci.exit

_ZN4i18n12phonenumbers11UnicodeText4Repr4CopyEPKci.exit: ; preds = %_ZN4i18n12phonenumbers11UnicodeText4Repr5clearEv.exit.i.i, %40
  %41 = phi ptr [ null, %_ZN4i18n12phonenumbers11UnicodeText4Repr5clearEv.exit.i.i ], [ %.pre.i, %40 ]
  store i8 1, ptr %7, align 8, !tbaa !17
  %42 = sext i32 %5 to i64
  tail call void @llvm.memcpy.p0.p0.i64(ptr align 1 %41, ptr readonly align 1 %3, i64 %42, i1 false)
  ret ptr %0
}